; Function Attrs: mustprogress nounwind uwtable
define hidden void @_ZN28ShenandoahAdaptiveHeuristics30adjust_last_trigger_parametersEd(ptr nocapture noundef nonnull align 8 dereferenceable(464) %0, double noundef %1) local_unnamed_addr #0 align 2 {
  %3 = getelementptr inbounds i8, ptr %0, i64 384
  %4 = load i32, ptr %3, align 8
  switch i32 %4, label %25 [
    i32 1, label %5
    i32 0, label %15
    i32 2, label %_ZN28ShenandoahAdaptiveHeuristics22adjust_margin_of_errorEd.exit
  ]

5:                                                ; preds = %2
  %6 = getelementptr inbounds i8, ptr %0, i64 368
  %7 = load double, ptr %6, align 8
  %8 = fadd double %7, %1
  %9 = fcmp olt double %8, 3.291000e+00
  %10 = select i1 %9, double %8, double 3.291000e+00
  %11 = fcmp ogt double %10, 3.190000e-01
  %12 = select i1 %11, double %10, double 3.190000e-01
  store double %12, ptr %6, align 8
  %13 = load volatile ptr, ptr getelementptr inbounds (i8, ptr @_ZN16LogTagSetMappingILN6LogTag4typeE49ELS1_40ELS1_0ELS1_0ELS1_0ELS1_0EE7_tagsetE, i64 56), align 8
  %.not.i = icmp eq ptr %13, null
  br i1 %.not.i, label %_ZN28ShenandoahAdaptiveHeuristics22adjust_margin_of_errorEd.exit, label %14

14:                                               ; preds = %5
  tail call void (ptr, ...) @_ZN7LogImplILN6LogTag4typeE49ELS1_40ELS1_0ELS1_0ELS1_0ELS1_0EE5writeILN8LogLevel4typeE2EEEvPKcz(ptr noundef nonnull @.str.11, double noundef %12)
  br label %_ZN28ShenandoahAdaptiveHeuristics22adjust_margin_of_errorEd.exit

15:                                               ; preds = %2
  %16 = getelementptr inbounds i8, ptr %0, i64 376
  %17 = load double, ptr %16, align 8
  %18 = fsub double %17, %1
  %19 = fcmp olt double %18, 3.291000e+00
  %20 = select i1 %19, double %18, double 3.291000e+00
  %21 = fcmp ogt double %20, 3.190000e-01
  %22 = select i1 %21, double %20, double 3.190000e-01
  store double %22, ptr %16, align 8
  %23 = load volatile ptr, ptr getelementptr inbounds (i8, ptr @_ZN16LogTagSetMappingILN6LogTag4typeE49ELS1_40ELS1_0ELS1_0ELS1_0ELS1_0EE7_tagsetE, i64 56), align 8
  %.not.i3 = icmp eq ptr %23, null
  br i1 %.not.i3, label %_ZN28ShenandoahAdaptiveHeuristics22adjust_margin_of_errorEd.exit, label %24

24:                                               ; preds = %15
  tail call void (ptr, ...) @_ZN7LogImplILN6LogTag4typeE49ELS1_40ELS1_0ELS1_0ELS1_0ELS1_0EE5writeILN8LogLevel4typeE2EEEvPKcz(ptr noundef nonnull @.str.12, double noundef %22)
  br label %_ZN28ShenandoahAdaptiveHeuristics22adjust_margin_of_errorEd.exit

25:                                               ; preds = %2
  %26 = load ptr, ptr @g_assert_poison, align 8
  store i8 88, ptr %26, align 1
  tail call void @_Z28report_should_not_reach_herePKci(ptr noundef nonnull @.str.10, i32 noundef 288) #12
  unreachable

_ZN28ShenandoahAdaptiveHeuristics22adjust_margin_of_errorEd.exit: ; preds = %24, %15, %14, %5, %2
  ret void
}